(lp1
(lp2
I1
aI4
aI18
aI27
aI30
aI32
aI36
aI44
aI50
aI55
aI63
aI65
aI67
aI72
aI73
aI74
aI75
aI77
aI78
aI91
aI93
aI95
aI99
aa(lp3
I2
aI5
aI8
aI9
aI10
aI11
aI13
aI16
aI20
aI22
aI25
aI28
aI35
aI39
aI40
aI41
aI46
aI48
aI58
aI81
aI84
aI85
aI86
aI87
aI89
aI90
aI94
aI98
aa(lp4
I12
aI17
aI23
aI33
aI37
aI47
aI49
aI52
aI56
aI59
aI60
aI68
aI69
aI71
aI76
aI96
aa(lp5
I3
aI15
aI19
aI21
aI29
aI31
aI34
aI38
aI42
aI43
aI64
aI66
aI80
aI88
aI97
aa(lp6
I0
aI6
aI7
aI14
aI24
aI26
aI45
aI51
aI53
aI54
aI57
aI61
aI62
aI70
aI79
aI82
aI83
aI92
aa.