(lp1
(lp2
(lp3
(lp4
I2
aI11
aI35
aI46
aI98
aI3
aI42
aI43
aI88
aI97
aI15
aI19
aI21
aI31
aI38
aI34
aI63
aI64
aI66
aI75
aI36
aI50
aI65
aI74
aI80
aI4
aI30
aI55
aI72
aI95
aa(lp5
I27
aI29
aI44
aI78
aI93
aI26
aI45
aI77
aI79
aI99
aI6
aI7
aI14
aI18
aI24
aI1
aI32
aI67
aI73
aI91
aa(lp6
I54
aI62
aI70
aI82
aI92
aI0
aI51
aI53
aI57
aI83
aI47
aI52
aI56
aI59
aI96
aaa(lp7
(lp8
I9
aI10
aI16
aI28
aI61
aI22
aI39
aI40
aI86
aI87
aI5
aI20
aI25
aI84
aI94
aa(lp9
I12
aI17
aI37
aI68
aI76
aI8
aI13
aI48
aI58
aI90
aI41
aI69
aI81
aI85
aI89
aI23
aI33
aI49
aI60
aI71
aaaa.